; Function Attrs: mustprogress uwtable
define noundef nonnull ptr @_ZN3g2o16OptimizableGraph6Vertex14cacheContainerEv(ptr noundef nonnull align 8 dereferenceable(128) %0) local_unnamed_addr #4 align 2 personality ptr @__gxx_personality_v0 {
  %2 = getelementptr inbounds nuw i8, ptr %0, i64 120
  %3 = load ptr, ptr %2, align 8, !tbaa !33
  %.not = icmp eq ptr %3, null
  br i1 %.not, label %4, label %9

4:                                                ; preds = %1
  %5 = tail call noalias noundef nonnull dereferenceable(72) ptr @_Znwm(i64 noundef 72) #43
  invoke void @_ZN3g2o14CacheContainerC1EPNS_16OptimizableGraph6VertexE(ptr noundef nonnull align 8 dereferenceable(65) %5, ptr noundef nonnull %0)
          to label %6 unwind label %7

6:                                                ; preds = %4
  store ptr %5, ptr %2, align 8, !tbaa !33
  br label %9

7:                                                ; preds = %4
  %8 = landingpad { ptr, i32 }
          cleanup
  tail call void @_ZdlPvm(ptr noundef nonnull %5, i64 noundef 72) #44
  resume { ptr, i32 } %8

9:                                                ; preds = %6, %1
  %10 = phi ptr [ %5, %6 ], [ %3, %1 ]
  ret ptr %10
}